target datalayout = "e-m:e-p270:32:32-p271:32:32-p272:64:64-i64:64-i128:128-f80:128-n8:16:32:64-S128"
target triple = "x86_64-pc-linux-gnu"

%"class.std::__cxx11::basic_string" = type { %"struct.std::__cxx11::basic_string<char>::_Alloc_hider", i64, %union.anon }
%"struct.std::__cxx11::basic_string<char>::_Alloc_hider" = type { ptr }
%union.anon = type { i64, [8 x i8] }
%"class.testing::internal::MutexBase" = type { %union.pthread_mutex_t, i8, i64 }
%union.pthread_mutex_t = type { %struct.__pthread_mutex_s }
%struct.__pthread_mutex_s = type { i32, i32, i32, i32, i32, i16, i16, %struct.__pthread_internal_list }
%struct.__pthread_internal_list = type { ptr, ptr }
%"class.std::ios_base" = type { ptr, i64, i64, i32, i32, i32, ptr, %"struct.std::ios_base::_Words", [8 x %"struct.std::ios_base::_Words"], i32, ptr, %"class.std::locale" }
%"struct.std::ios_base::_Words" = type { ptr, i64 }
%"class.std::locale" = type { ptr }
%"struct.std::_Rb_tree_header" = type { %"struct.std::_Rb_tree_node_base", i64 }
%"struct.std::_Rb_tree_node_base" = type { i32, ptr, ptr, ptr }
%"class.testing::Cardinality" = type { %"class.std::shared_ptr" }
%"class.std::shared_ptr" = type { %"class.std::__shared_ptr" }
%"class.std::__shared_ptr" = type { ptr, %"class.std::__shared_count" }
%"class.std::__shared_count" = type { ptr }
%"class.testing::internal::ExpectationBase" = type { ptr, ptr, i32, %"class.std::__cxx11::basic_string", %"class.std::__cxx11::basic_string", i8, %"class.testing::Cardinality", %"class.testing::ExpectationSet", i32, i8, %"class.std::vector.30", i8, i8, i8, i32, i8, %"class.testing::internal::Mutex" }
%"class.testing::ExpectationSet" = type { %"class.std::set" }
%"class.std::set" = type { %"class.std::_Rb_tree" }
%"class.std::_Rb_tree" = type { %"struct.std::_Rb_tree<testing::Expectation, testing::Expectation, std::_Identity<testing::Expectation>, testing::Expectation::Less>::_Rb_tree_impl" }
%"struct.std::_Rb_tree<testing::Expectation, testing::Expectation, std::_Identity<testing::Expectation>, testing::Expectation::Less>::_Rb_tree_impl" = type { [8 x i8], %"struct.std::_Rb_tree_header" }
%"class.std::vector.30" = type { %"struct.std::_Vector_base.31" }
%"struct.std::_Vector_base.31" = type { %"struct.std::_Vector_base<const void *, std::allocator<const void *>>::_Vector_impl" }
%"struct.std::_Vector_base<const void *, std::allocator<const void *>>::_Vector_impl" = type { %"struct.std::_Vector_base<const void *, std::allocator<const void *>>::_Vector_impl_data" }
%"struct.std::_Vector_base<const void *, std::allocator<const void *>>::_Vector_impl_data" = type { ptr, ptr, ptr }
%"class.testing::internal::Mutex" = type { %"class.testing::internal::MutexBase" }

@_ZN7testing8internal13g_gmock_mutexE = dso_local global %"class.testing::internal::MutexBase" zeroinitializer, align 8
@.str.45 = private unnamed_addr constant [26 x i8] c"         Expected: to be \00", align 1
@.str.46 = private unnamed_addr constant [21 x i8] c"\0A           Actual: \00", align 1
@.str.47 = private unnamed_addr constant [4 x i8] c" - \00", align 1
@.str.48 = private unnamed_addr constant [15 x i8] c"over-saturated\00", align 1
@.str.49 = private unnamed_addr constant [10 x i8] c"saturated\00", align 1
@.str.50 = private unnamed_addr constant [10 x i8] c"satisfied\00", align 1
@.str.51 = private unnamed_addr constant [12 x i8] c"unsatisfied\00", align 1
@.str.52 = private unnamed_addr constant [6 x i8] c" and \00", align 1
@.str.53 = private unnamed_addr constant [8 x i8] c"retired\00", align 1
@.str.54 = private unnamed_addr constant [7 x i8] c"active\00", align 1

; Function Attrs: mustprogress nounwind uwtable
define linkonce_odr dso_local noundef ptr @_ZNKSt12__shared_ptrIKN7testing20CardinalityInterfaceELN9__gnu_cxx12_Lock_policyE2EE3getEv(ptr noundef nonnull align 8 dereferenceable(16) %0) #7 comdat align 2 {
  %2 = alloca ptr, align 8
  store ptr %0, ptr %2, align 8, !tbaa !339
  %3 = load ptr, ptr %2, align 8
  %4 = getelementptr inbounds nuw %"class.std::__shared_ptr", ptr %3, i32 0, i32 0
  %5 = load ptr, ptr %4, align 8, !tbaa !341
  ret ptr %5
}

; Function Attrs: mustprogress nounwind uwtable
define linkonce_odr dso_local noundef ptr @_ZNKSt19__shared_ptr_accessIKN7testing20CardinalityInterfaceELN9__gnu_cxx12_Lock_policyE2ELb0ELb0EE6_M_getEv(ptr noundef nonnull align 1 dereferenceable(1) %0) #7 comdat align 2 {
  %2 = alloca ptr, align 8
  store ptr %0, ptr %2, align 8, !tbaa !479
  %3 = load ptr, ptr %2, align 8
  %4 = call noundef ptr @_ZNKSt12__shared_ptrIKN7testing20CardinalityInterfaceELN9__gnu_cxx12_Lock_policyE2EE3getEv(ptr noundef nonnull align 8 dereferenceable(16) %3) #3
  ret ptr %4
}

; Function Attrs: inlinehint mustprogress nounwind uwtable
define linkonce_odr dso_local noundef i32 @_ZStorSt12_Ios_IostateS_(i32 noundef %0, i32 noundef %1) #10 comdat {
  %3 = alloca i32, align 4
  %4 = alloca i32, align 4
  store i32 %0, ptr %3, align 4, !tbaa !664
  store i32 %1, ptr %4, align 4, !tbaa !664
  %5 = load i32, ptr %3, align 4, !tbaa !664
  %6 = load i32, ptr %4, align 4, !tbaa !664
  %7 = or i32 %5, %6
  ret i32 %7
}

; Function Attrs: mustprogress nounwind uwtable
define available_externally noundef i32 @_ZNKSt9basic_iosIcSt11char_traitsIcEE7rdstateEv(ptr noundef nonnull align 8 dereferenceable(264) %0) #7 align 2 {
  %2 = alloca ptr, align 8
  store ptr %0, ptr %2, align 8, !tbaa !662
  %3 = load ptr, ptr %2, align 8
  %4 = getelementptr inbounds nuw %"class.std::ios_base", ptr %3, i32 0, i32 5
  %5 = load i32, ptr %4, align 8, !tbaa !666
  ret i32 %5
}

; Function Attrs: mustprogress uwtable
define linkonce_odr dso_local noundef zeroext i1 @_ZNK7testing11Cardinality22IsSatisfiedByCallCountEi(ptr noundef nonnull align 8 dereferenceable(16) %0, i32 noundef %1) #4 comdat align 2 {
  %3 = alloca ptr, align 8
  %4 = alloca i32, align 4
  store ptr %0, ptr %3, align 8, !tbaa !23
  store i32 %1, ptr %4, align 4, !tbaa !4
  %5 = load ptr, ptr %3, align 8
  %6 = getelementptr inbounds nuw %"class.testing::Cardinality", ptr %5, i32 0, i32 0
  %7 = call noundef ptr @_ZNKSt19__shared_ptr_accessIKN7testing20CardinalityInterfaceELN9__gnu_cxx12_Lock_policyE2ELb0ELb0EEptEv(ptr noundef nonnull align 1 dereferenceable(1) %6) #3
  %8 = load i32, ptr %4, align 4, !tbaa !4
  %9 = load ptr, ptr %7, align 8, !tbaa !15
  %10 = getelementptr inbounds ptr, ptr %9, i64 4
  %11 = load ptr, ptr %10, align 8
  %12 = call noundef zeroext i1 %11(ptr noundef nonnull align 8 dereferenceable(8) %7, i32 noundef %8)
  ret i1 %12
}

; Function Attrs: mustprogress uwtable
define linkonce_odr dso_local noundef zeroext i1 @_ZNK7testing11Cardinality22IsSaturatedByCallCountEi(ptr noundef nonnull align 8 dereferenceable(16) %0, i32 noundef %1) #4 comdat align 2 {
  %3 = alloca ptr, align 8
  %4 = alloca i32, align 4
  store ptr %0, ptr %3, align 8, !tbaa !23
  store i32 %1, ptr %4, align 4, !tbaa !4
  %5 = load ptr, ptr %3, align 8
  %6 = getelementptr inbounds nuw %"class.testing::Cardinality", ptr %5, i32 0, i32 0
  %7 = call noundef ptr @_ZNKSt19__shared_ptr_accessIKN7testing20CardinalityInterfaceELN9__gnu_cxx12_Lock_policyE2ELb0ELb0EEptEv(ptr noundef nonnull align 1 dereferenceable(1) %6) #3
  %8 = load i32, ptr %4, align 4, !tbaa !4
  %9 = load ptr, ptr %7, align 8, !tbaa !15
  %10 = getelementptr inbounds ptr, ptr %9, i64 5
  %11 = load ptr, ptr %10, align 8
  %12 = call noundef zeroext i1 %11(ptr noundef nonnull align 8 dereferenceable(8) %7, i32 noundef %8)
  ret i1 %12
}

; Function Attrs: mustprogress uwtable
define linkonce_odr dso_local noundef zeroext i1 @_ZNK7testing11Cardinality26IsOverSaturatedByCallCountEi(ptr noundef nonnull align 8 dereferenceable(16) %0, i32 noundef %1) #4 comdat align 2 {
  %3 = alloca ptr, align 8
  %4 = alloca i32, align 4
  store ptr %0, ptr %3, align 8, !tbaa !23
  store i32 %1, ptr %4, align 4, !tbaa !4
  %5 = load ptr, ptr %3, align 8
  %6 = getelementptr inbounds nuw %"class.testing::Cardinality", ptr %5, i32 0, i32 0
  %7 = call noundef ptr @_ZNKSt19__shared_ptr_accessIKN7testing20CardinalityInterfaceELN9__gnu_cxx12_Lock_policyE2ELb0ELb0EEptEv(ptr noundef nonnull align 1 dereferenceable(1) %6) #3
  %8 = load i32, ptr %4, align 4, !tbaa !4
  %9 = load ptr, ptr %7, align 8, !tbaa !15
  %10 = getelementptr inbounds ptr, ptr %9, i64 5
  %11 = load ptr, ptr %10, align 8
  %12 = call noundef zeroext i1 %11(ptr noundef nonnull align 8 dereferenceable(8) %7, i32 noundef %8)
  br i1 %12, label %13, label %22

13:                                               ; preds = %2
  %14 = getelementptr inbounds nuw %"class.testing::Cardinality", ptr %5, i32 0, i32 0
  %15 = call noundef ptr @_ZNKSt19__shared_ptr_accessIKN7testing20CardinalityInterfaceELN9__gnu_cxx12_Lock_policyE2ELb0ELb0EEptEv(ptr noundef nonnull align 1 dereferenceable(1) %14) #3
  %16 = load i32, ptr %4, align 4, !tbaa !4
  %17 = load ptr, ptr %15, align 8, !tbaa !15
  %18 = getelementptr inbounds ptr, ptr %17, i64 4
  %19 = load ptr, ptr %18, align 8
  %20 = call noundef zeroext i1 %19(ptr noundef nonnull align 8 dereferenceable(8) %15, i32 noundef %16)
  %21 = xor i1 %20, true
  br label %22

22:                                               ; preds = %13, %2
  %23 = phi i1 [ false, %2 ], [ %21, %13 ]
  ret i1 %23
}

; Function Attrs: mustprogress nounwind uwtable
define linkonce_odr dso_local noundef ptr @_ZNKSt19__shared_ptr_accessIKN7testing20CardinalityInterfaceELN9__gnu_cxx12_Lock_policyE2ELb0ELb0EEptEv(ptr noundef nonnull align 1 dereferenceable(1) %0) #7 comdat align 2 {
  %2 = alloca ptr, align 8
  store ptr %0, ptr %2, align 8, !tbaa !479
  %3 = load ptr, ptr %2, align 8
  %4 = call noundef ptr @_ZNKSt19__shared_ptr_accessIKN7testing20CardinalityInterfaceELN9__gnu_cxx12_Lock_policyE2ELb0ELb0EE6_M_getEv(ptr noundef nonnull align 1 dereferenceable(1) %3) #3
  ret ptr %4
}

; Function Attrs: mustprogress nounwind uwtable
define linkonce_odr dso_local noundef i64 @_ZNSt11char_traitsIcE6lengthEPKc(ptr noundef %0) #7 comdat align 2 {
  %2 = alloca ptr, align 8
  store ptr %0, ptr %2, align 8, !tbaa !13
  %3 = load ptr, ptr %2, align 8, !tbaa !13
  %4 = call i64 @strlen(ptr noundef %3) #3
  ret i64 %4
}

; Function Attrs: mustprogress uwtable
define available_externally void @_ZNSt9basic_iosIcSt11char_traitsIcEE8setstateESt12_Ios_Iostate(ptr noundef nonnull align 8 dereferenceable(264) %0, i32 noundef %1) #4 align 2 {
  %3 = alloca ptr, align 8
  %4 = alloca i32, align 4
  store ptr %0, ptr %3, align 8, !tbaa !662
  store i32 %1, ptr %4, align 4, !tbaa !664
  %5 = load ptr, ptr %3, align 8
  %6 = call noundef i32 @_ZNKSt9basic_iosIcSt11char_traitsIcEE7rdstateEv(ptr noundef nonnull align 8 dereferenceable(264) %5)
  %7 = load i32, ptr %4, align 4, !tbaa !664
  %8 = call noundef i32 @_ZStorSt12_Ios_IostateS_(i32 noundef %6, i32 noundef %7)
  call void @_ZNSt9basic_iosIcSt11char_traitsIcEE5clearESt12_Ios_Iostate(ptr noundef nonnull align 8 dereferenceable(264) %5, i32 noundef %8)
  ret void
}

; Function Attrs: mustprogress uwtable
define linkonce_odr dso_local noundef zeroext i1 @_ZNK7testing8internal15ExpectationBase10is_retiredEv(ptr noundef nonnull align 8 dereferenceable(264) %0) #4 comdat align 2 {
  %2 = alloca ptr, align 8
  store ptr %0, ptr %2, align 8, !tbaa !158
  %3 = load ptr, ptr %2, align 8
  call void @_ZNK7testing8internal9MutexBase10AssertHeldEv(ptr noundef nonnull align 8 dereferenceable(56) @_ZN7testing8internal13g_gmock_mutexE)
  %4 = getelementptr inbounds nuw %"class.testing::internal::ExpectationBase", ptr %3, i32 0, i32 9
  %5 = load i8, ptr %4, align 4, !tbaa !187, !range !53, !noundef !54
  %6 = trunc i8 %5 to i1
  ret i1 %6
}

; Function Attrs: mustprogress uwtable
define linkonce_odr dso_local noundef zeroext i1 @_ZNK7testing8internal15ExpectationBase11IsSatisfiedEv(ptr noundef nonnull align 8 dereferenceable(264) %0) #4 comdat align 2 {
  %2 = alloca ptr, align 8
  store ptr %0, ptr %2, align 8, !tbaa !158
  %3 = load ptr, ptr %2, align 8
  call void @_ZNK7testing8internal9MutexBase10AssertHeldEv(ptr noundef nonnull align 8 dereferenceable(56) @_ZN7testing8internal13g_gmock_mutexE)
  %4 = call noundef nonnull align 8 dereferenceable(16) ptr @_ZNK7testing8internal15ExpectationBase11cardinalityEv(ptr noundef nonnull align 8 dereferenceable(264) %3)
  %5 = getelementptr inbounds nuw %"class.testing::internal::ExpectationBase", ptr %3, i32 0, i32 8
  %6 = load i32, ptr %5, align 8, !tbaa !186
  %7 = call noundef zeroext i1 @_ZNK7testing11Cardinality22IsSatisfiedByCallCountEi(ptr noundef nonnull align 8 dereferenceable(16) %4, i32 noundef %6)
  ret i1 %7
}

; Function Attrs: mustprogress uwtable
define linkonce_odr dso_local noundef zeroext i1 @_ZNK7testing8internal15ExpectationBase11IsSaturatedEv(ptr noundef nonnull align 8 dereferenceable(264) %0) #4 comdat align 2 {
  %2 = alloca ptr, align 8
  store ptr %0, ptr %2, align 8, !tbaa !158
  %3 = load ptr, ptr %2, align 8
  call void @_ZNK7testing8internal9MutexBase10AssertHeldEv(ptr noundef nonnull align 8 dereferenceable(56) @_ZN7testing8internal13g_gmock_mutexE)
  %4 = call noundef nonnull align 8 dereferenceable(16) ptr @_ZNK7testing8internal15ExpectationBase11cardinalityEv(ptr noundef nonnull align 8 dereferenceable(264) %3)
  %5 = getelementptr inbounds nuw %"class.testing::internal::ExpectationBase", ptr %3, i32 0, i32 8
  %6 = load i32, ptr %5, align 8, !tbaa !186
  %7 = call noundef zeroext i1 @_ZNK7testing11Cardinality22IsSaturatedByCallCountEi(ptr noundef nonnull align 8 dereferenceable(16) %4, i32 noundef %6)
  ret i1 %7
}

; Function Attrs: mustprogress uwtable
define linkonce_odr dso_local noundef zeroext i1 @_ZNK7testing8internal15ExpectationBase15IsOverSaturatedEv(ptr noundef nonnull align 8 dereferenceable(264) %0) #4 comdat align 2 {
  %2 = alloca ptr, align 8
  store ptr %0, ptr %2, align 8, !tbaa !158
  %3 = load ptr, ptr %2, align 8
  call void @_ZNK7testing8internal9MutexBase10AssertHeldEv(ptr noundef nonnull align 8 dereferenceable(56) @_ZN7testing8internal13g_gmock_mutexE)
  %4 = call noundef nonnull align 8 dereferenceable(16) ptr @_ZNK7testing8internal15ExpectationBase11cardinalityEv(ptr noundef nonnull align 8 dereferenceable(264) %3)
  %5 = getelementptr inbounds nuw %"class.testing::internal::ExpectationBase", ptr %3, i32 0, i32 8
  %6 = load i32, ptr %5, align 8, !tbaa !186
  %7 = call noundef zeroext i1 @_ZNK7testing11Cardinality26IsOverSaturatedByCallCountEi(ptr noundef nonnull align 8 dereferenceable(16) %4, i32 noundef %6)
  ret i1 %7
}

; Function Attrs: mustprogress uwtable
define linkonce_odr dso_local noundef i32 @_ZNK7testing8internal15ExpectationBase10call_countEv(ptr noundef nonnull align 8 dereferenceable(264) %0) #4 comdat align 2 {
  %2 = alloca ptr, align 8
  store ptr %0, ptr %2, align 8, !tbaa !158
  %3 = load ptr, ptr %2, align 8
  call void @_ZNK7testing8internal9MutexBase10AssertHeldEv(ptr noundef nonnull align 8 dereferenceable(56) @_ZN7testing8internal13g_gmock_mutexE)
  %4 = getelementptr inbounds nuw %"class.testing::internal::ExpectationBase", ptr %3, i32 0, i32 8
  %5 = load i32, ptr %4, align 8, !tbaa !186
  ret i32 %5
}

; Function Attrs: mustprogress uwtable
define linkonce_odr dso_local void @_ZNK7testing11Cardinality10DescribeToEPSo(ptr noundef nonnull align 8 dereferenceable(16) %0, ptr noundef %1) #4 comdat align 2 {
  %3 = alloca ptr, align 8
  %4 = alloca ptr, align 8
  store ptr %0, ptr %3, align 8, !tbaa !23
  store ptr %1, ptr %4, align 8, !tbaa !8
  %5 = load ptr, ptr %3, align 8
  %6 = getelementptr inbounds nuw %"class.testing::Cardinality", ptr %5, i32 0, i32 0
  %7 = call noundef ptr @_ZNKSt19__shared_ptr_accessIKN7testing20CardinalityInterfaceELN9__gnu_cxx12_Lock_policyE2ELb0ELb0EEptEv(ptr noundef nonnull align 1 dereferenceable(1) %6) #3
  %8 = load ptr, ptr %4, align 8, !tbaa !8
  %9 = load ptr, ptr %7, align 8, !tbaa !15
  %10 = getelementptr inbounds ptr, ptr %9, i64 6
  %11 = load ptr, ptr %10, align 8
  call void %11(ptr noundef nonnull align 8 dereferenceable(8) %7, ptr noundef %8)
  ret void
}

; Function Attrs: mustprogress nounwind uwtable
define linkonce_odr dso_local noundef nonnull align 8 dereferenceable(16) ptr @_ZNK7testing8internal15ExpectationBase11cardinalityEv(ptr noundef nonnull align 8 dereferenceable(264) %0) #7 comdat align 2 {
  %2 = alloca ptr, align 8
  store ptr %0, ptr %2, align 8, !tbaa !158
  %3 = load ptr, ptr %2, align 8
  %4 = getelementptr inbounds nuw %"class.testing::internal::ExpectationBase", ptr %3, i32 0, i32 6
  ret ptr %4
}

; Function Attrs: inlinehint mustprogress uwtable
define available_externally noundef nonnull align 8 dereferenceable(8) ptr @_ZStlsISt11char_traitsIcEERSt13basic_ostreamIcT_ES5_PKc(ptr noundef nonnull align 8 dereferenceable(8) %0, ptr noundef %1) #5 {
  %3 = alloca ptr, align 8
  %4 = alloca ptr, align 8
  store ptr %0, ptr %3, align 8, !tbaa !8
  store ptr %1, ptr %4, align 8, !tbaa !13
  %5 = load ptr, ptr %4, align 8, !tbaa !13
  %6 = icmp ne ptr %5, null
  br i1 %6, label %13, label %7

7:                                                ; preds = %2
  %8 = load ptr, ptr %3, align 8, !tbaa !8
  %9 = load ptr, ptr %8, align 8, !tbaa !15
  %10 = getelementptr i8, ptr %9, i64 -24
  %11 = load i64, ptr %10, align 8
  %12 = getelementptr inbounds i8, ptr %8, i64 %11
  call void @_ZNSt9basic_iosIcSt11char_traitsIcEE8setstateESt12_Ios_Iostate(ptr noundef nonnull align 8 dereferenceable(264) %12, i32 noundef 1)
  br label %19

13:                                               ; preds = %2
  %14 = load ptr, ptr %3, align 8, !tbaa !8
  %15 = load ptr, ptr %4, align 8, !tbaa !13
  %16 = load ptr, ptr %4, align 8, !tbaa !13
  %17 = call noundef i64 @_ZNSt11char_traitsIcE6lengthEPKc(ptr noundef %16)
  %18 = call noundef nonnull align 8 dereferenceable(8) ptr @_ZSt16__ostream_insertIcSt11char_traitsIcEERSt13basic_ostreamIT_T0_ES6_PKS3_l(ptr noundef nonnull align 8 dereferenceable(8) %14, ptr noundef %15, i64 noundef %17)
  br label %19

19:                                               ; preds = %13, %7
  %20 = load ptr, ptr %3, align 8, !tbaa !8
  ret ptr %20
}

; Function Attrs: mustprogress uwtable
define dso_local void @_ZNK7testing8internal15ExpectationBase19DescribeCallCountToEPSo(ptr noundef nonnull align 8 dereferenceable(264) %0, ptr noundef %1) #4 align 2 {
  %3 = alloca ptr, align 8
  %4 = alloca ptr, align 8
  store ptr %0, ptr %3, align 8, !tbaa !158
  store ptr %1, ptr %4, align 8, !tbaa !8
  %5 = load ptr, ptr %3, align 8
  call void @_ZNK7testing8internal9MutexBase10AssertHeldEv(ptr noundef nonnull align 8 dereferenceable(56) @_ZN7testing8internal13g_gmock_mutexE)
  %6 = load ptr, ptr %4, align 8, !tbaa !8
  %7 = call noundef nonnull align 8 dereferenceable(8) ptr @_ZStlsISt11char_traitsIcEERSt13basic_ostreamIcT_ES5_PKc(ptr noundef nonnull align 8 dereferenceable(8) %6, ptr noundef @.str.45)
  %8 = call noundef nonnull align 8 dereferenceable(16) ptr @_ZNK7testing8internal15ExpectationBase11cardinalityEv(ptr noundef nonnull align 8 dereferenceable(264) %5)
  %9 = load ptr, ptr %4, align 8, !tbaa !8
  call void @_ZNK7testing11Cardinality10DescribeToEPSo(ptr noundef nonnull align 8 dereferenceable(16) %8, ptr noundef %9)
  %10 = load ptr, ptr %4, align 8, !tbaa !8
  %11 = call noundef nonnull align 8 dereferenceable(8) ptr @_ZStlsISt11char_traitsIcEERSt13basic_ostreamIcT_ES5_PKc(ptr noundef nonnull align 8 dereferenceable(8) %10, ptr noundef @.str.46)
  %12 = call noundef i32 @_ZNK7testing8internal15ExpectationBase10call_countEv(ptr noundef nonnull align 8 dereferenceable(264) %5)
  %13 = load ptr, ptr %4, align 8, !tbaa !8
  call void @_ZN7testing11Cardinality25DescribeActualCallCountToEiPSo(i32 noundef %12, ptr noundef %13)
  %14 = load ptr, ptr %4, align 8, !tbaa !8
  %15 = call noundef nonnull align 8 dereferenceable(8) ptr @_ZStlsISt11char_traitsIcEERSt13basic_ostreamIcT_ES5_PKc(ptr noundef nonnull align 8 dereferenceable(8) %14, ptr noundef @.str.47)
  %16 = call noundef zeroext i1 @_ZNK7testing8internal15ExpectationBase15IsOverSaturatedEv(ptr noundef nonnull align 8 dereferenceable(264) %5)
  br i1 %16, label %17, label %18

17:                                               ; preds = %2
  br label %26

18:                                               ; preds = %2
  %19 = call noundef zeroext i1 @_ZNK7testing8internal15ExpectationBase11IsSaturatedEv(ptr noundef nonnull align 8 dereferenceable(264) %5)
  br i1 %19, label %20, label %21

20:                                               ; preds = %18
  br label %24

21:                                               ; preds = %18
  %22 = call noundef zeroext i1 @_ZNK7testing8internal15ExpectationBase11IsSatisfiedEv(ptr noundef nonnull align 8 dereferenceable(264) %5)
  %23 = select i1 %22, ptr @.str.50, ptr @.str.51
  br label %24

24:                                               ; preds = %21, %20
  %25 = phi ptr [ @.str.49, %20 ], [ %23, %21 ]
  br label %26

26:                                               ; preds = %24, %17
  %27 = phi ptr [ @.str.48, %17 ], [ %25, %24 ]
  %28 = call noundef nonnull align 8 dereferenceable(8) ptr @_ZStlsISt11char_traitsIcEERSt13basic_ostreamIcT_ES5_PKc(ptr noundef nonnull align 8 dereferenceable(8) %15, ptr noundef %27)
  %29 = call noundef nonnull align 8 dereferenceable(8) ptr @_ZStlsISt11char_traitsIcEERSt13basic_ostreamIcT_ES5_PKc(ptr noundef nonnull align 8 dereferenceable(8) %28, ptr noundef @.str.52)
  %30 = call noundef zeroext i1 @_ZNK7testing8internal15ExpectationBase10is_retiredEv(ptr noundef nonnull align 8 dereferenceable(264) %5)
  %31 = select i1 %30, ptr @.str.53, ptr @.str.54
  %32 = call noundef nonnull align 8 dereferenceable(8) ptr @_ZStlsISt11char_traitsIcEERSt13basic_ostreamIcT_ES5_PKc(ptr noundef nonnull align 8 dereferenceable(8) %29, ptr noundef %31)
  ret void
}