; Function Attrs: mustprogress uwtable
define dso_local void @_ZNK7testing8internal15ExpectationBase19DescribeCallCountToEPSo(ptr noundef nonnull readonly align 8 captures(none) dereferenceable(264) %0, ptr noundef %1) local_unnamed_addr #3 align 2 {
  tail call void @_ZNK7testing8internal9MutexBase10AssertHeldEv(ptr noundef nonnull align 8 dereferenceable(56) @_ZN7testing8internal13g_gmock_mutexE)
  %3 = tail call noundef nonnull align 8 dereferenceable(8) ptr @_ZSt16__ostream_insertIcSt11char_traitsIcEERSt13basic_ostreamIT_T0_ES6_PKS3_l(ptr noundef nonnull align 8 dereferenceable(8) %1, ptr noundef nonnull @.str.45, i64 noundef 25)
  %4 = getelementptr inbounds nuw i8, ptr %0, i64 96
  %5 = load ptr, ptr %4, align 8, !tbaa !60
  %6 = load ptr, ptr %5, align 8, !tbaa !27
  %7 = getelementptr inbounds nuw i8, ptr %6, i64 48
  %8 = load ptr, ptr %7, align 8
  tail call void %8(ptr noundef nonnull align 8 dereferenceable(8) %5, ptr noundef nonnull %1)
  %9 = tail call noundef nonnull align 8 dereferenceable(8) ptr @_ZSt16__ostream_insertIcSt11char_traitsIcEERSt13basic_ostreamIT_T0_ES6_PKS3_l(ptr noundef nonnull align 8 dereferenceable(8) %1, ptr noundef nonnull @.str.46, i64 noundef 20)
  tail call void @_ZNK7testing8internal9MutexBase10AssertHeldEv(ptr noundef nonnull align 8 dereferenceable(56) @_ZN7testing8internal13g_gmock_mutexE)
  %10 = getelementptr inbounds nuw i8, ptr %0, i64 160
  %11 = load i32, ptr %10, align 8, !tbaa !236
  tail call void @_ZN7testing11Cardinality25DescribeActualCallCountToEiPSo(i32 noundef %11, ptr noundef nonnull %1)
  %12 = tail call noundef nonnull align 8 dereferenceable(8) ptr @_ZSt16__ostream_insertIcSt11char_traitsIcEERSt13basic_ostreamIT_T0_ES6_PKS3_l(ptr noundef nonnull align 8 dereferenceable(8) %1, ptr noundef nonnull @.str.47, i64 noundef 3)
  tail call void @_ZNK7testing8internal9MutexBase10AssertHeldEv(ptr noundef nonnull align 8 dereferenceable(56) @_ZN7testing8internal13g_gmock_mutexE)
  %13 = load i32, ptr %10, align 8, !tbaa !236
  %14 = load ptr, ptr %4, align 8, !tbaa !60
  %15 = load ptr, ptr %14, align 8, !tbaa !27
  %16 = getelementptr inbounds nuw i8, ptr %15, i64 40
  %17 = load ptr, ptr %16, align 8
  %18 = tail call noundef zeroext i1 %17(ptr noundef nonnull align 8 dereferenceable(8) %14, i32 noundef %13)
  br i1 %18, label %_ZNK7testing8internal15ExpectationBase15IsOverSaturatedEv.exit, label %_ZNK7testing8internal15ExpectationBase15IsOverSaturatedEv.exit.thread

_ZNK7testing8internal15ExpectationBase15IsOverSaturatedEv.exit: ; preds = %2
  %19 = load ptr, ptr %4, align 8, !tbaa !60
  %20 = load ptr, ptr %19, align 8, !tbaa !27
  %21 = getelementptr inbounds nuw i8, ptr %20, i64 32
  %22 = load ptr, ptr %21, align 8
  %23 = tail call noundef zeroext i1 %22(ptr noundef nonnull align 8 dereferenceable(8) %19, i32 noundef %13)
  br i1 %23, label %_ZNK7testing8internal15ExpectationBase15IsOverSaturatedEv.exit.thread, label %38

_ZNK7testing8internal15ExpectationBase15IsOverSaturatedEv.exit.thread: ; preds = %2, %_ZNK7testing8internal15ExpectationBase15IsOverSaturatedEv.exit
  tail call void @_ZNK7testing8internal9MutexBase10AssertHeldEv(ptr noundef nonnull align 8 dereferenceable(56) @_ZN7testing8internal13g_gmock_mutexE)
  %24 = load i32, ptr %10, align 8, !tbaa !236
  %25 = load ptr, ptr %4, align 8, !tbaa !60
  %26 = load ptr, ptr %25, align 8, !tbaa !27
  %27 = getelementptr inbounds nuw i8, ptr %26, i64 40
  %28 = load ptr, ptr %27, align 8
  %29 = tail call noundef zeroext i1 %28(ptr noundef nonnull align 8 dereferenceable(8) %25, i32 noundef %24)
  br i1 %29, label %38, label %30

30:                                               ; preds = %_ZNK7testing8internal15ExpectationBase15IsOverSaturatedEv.exit.thread
  tail call void @_ZNK7testing8internal9MutexBase10AssertHeldEv(ptr noundef nonnull align 8 dereferenceable(56) @_ZN7testing8internal13g_gmock_mutexE)
  %31 = load i32, ptr %10, align 8, !tbaa !236
  %32 = load ptr, ptr %4, align 8, !tbaa !60
  %33 = load ptr, ptr %32, align 8, !tbaa !27
  %34 = getelementptr inbounds nuw i8, ptr %33, i64 32
  %35 = load ptr, ptr %34, align 8
  %36 = tail call noundef zeroext i1 %35(ptr noundef nonnull align 8 dereferenceable(8) %32, i32 noundef %31)
  %37 = select i1 %36, ptr @.str.50, ptr @.str.51
  br label %38

38:                                               ; preds = %30, %_ZNK7testing8internal15ExpectationBase15IsOverSaturatedEv.exit.thread, %_ZNK7testing8internal15ExpectationBase15IsOverSaturatedEv.exit
  %39 = phi ptr [ @.str.48, %_ZNK7testing8internal15ExpectationBase15IsOverSaturatedEv.exit ], [ %37, %30 ], [ @.str.49, %_ZNK7testing8internal15ExpectationBase15IsOverSaturatedEv.exit.thread ]
  %40 = tail call noundef i64 @strlen(ptr noundef nonnull dereferenceable(1) %39) #34
  %41 = tail call noundef nonnull align 8 dereferenceable(8) ptr @_ZSt16__ostream_insertIcSt11char_traitsIcEERSt13basic_ostreamIT_T0_ES6_PKS3_l(ptr noundef nonnull align 8 dereferenceable(8) %1, ptr noundef nonnull %39, i64 noundef %40)
  %42 = tail call noundef nonnull align 8 dereferenceable(8) ptr @_ZSt16__ostream_insertIcSt11char_traitsIcEERSt13basic_ostreamIT_T0_ES6_PKS3_l(ptr noundef nonnull align 8 dereferenceable(8) %1, ptr noundef nonnull @.str.52, i64 noundef 5)
  tail call void @_ZNK7testing8internal9MutexBase10AssertHeldEv(ptr noundef nonnull align 8 dereferenceable(56) @_ZN7testing8internal13g_gmock_mutexE)
  %43 = getelementptr inbounds nuw i8, ptr %0, i64 164
  %44 = load i8, ptr %43, align 4, !tbaa !237, !range !245, !noundef !181
  %45 = trunc nuw i8 %44 to i1
  %46 = select i1 %45, ptr @.str.53, ptr @.str.54
  %47 = select i1 %45, i64 7, i64 6
  %48 = tail call noundef nonnull align 8 dereferenceable(8) ptr @_ZSt16__ostream_insertIcSt11char_traitsIcEERSt13basic_ostreamIT_T0_ES6_PKS3_l(ptr noundef nonnull align 8 dereferenceable(8) %1, ptr noundef nonnull %46, i64 noundef %47)
  ret void
}